target datalayout = "e-m:e-p270:32:32-p271:32:32-p272:64:64-i64:64-i128:128-f80:128-n8:16:32:64-S128"
target triple = "x86_64-pc-linux-gnu"

%struct.ident_t = type { i32, i32, i32, i32, ptr }
%class.SparseMatrix = type { i8, i32, i32, ptr, ptr }
%struct.MatrixEntry = type { i32, float }

@1 = private unnamed_addr constant %struct.ident_t { i32 0, i32 514, i32 0, i32 22, ptr @0 }, align 8

; Function Attrs: norecurse nounwind uwtable
define internal void @_ZNK12SparseMatrixIfE8MultiplyIfEEvPKT_PS2_i.omp_outlined(ptr noalias noundef %0, ptr noalias noundef %1, ptr noundef %2, ptr noundef nonnull align 8 dereferenceable(8) %3, ptr noundef nonnull align 8 dereferenceable(8) %4) #17 {
  %6 = alloca ptr, align 8
  %7 = alloca ptr, align 8
  %8 = alloca ptr, align 8
  %9 = alloca ptr, align 8
  %10 = alloca ptr, align 8
  %11 = alloca i32, align 4
  %12 = alloca i32, align 4
  %13 = alloca i32, align 4
  %14 = alloca i32, align 4
  %15 = alloca i32, align 4
  %16 = alloca i32, align 4
  %17 = alloca i32, align 4
  %18 = alloca i32, align 4
  %19 = alloca i32, align 4
  %20 = alloca float, align 4
  %21 = alloca ptr, align 8
  %22 = alloca ptr, align 8
  %23 = alloca ptr, align 8
  store ptr %0, ptr %6, align 8
  store ptr %1, ptr %7, align 8
  store ptr %2, ptr %8, align 8
  store ptr %3, ptr %9, align 8
  store ptr %4, ptr %10, align 8
  %24 = load ptr, ptr %8, align 8
  %25 = load ptr, ptr %9, align 8
  %26 = load ptr, ptr %10, align 8
  %27 = getelementptr inbounds %class.SparseMatrix, ptr %24, i32 0, i32 2
  %28 = load i32, ptr %27, align 8
  store i32 %28, ptr %12, align 4
  %29 = load i32, ptr %12, align 4
  %30 = sub nsw i32 %29, 0
  %31 = sdiv i32 %30, 1
  %32 = sub nsw i32 %31, 1
  store i32 %32, ptr %13, align 4
  store i32 0, ptr %14, align 4
  %33 = load i32, ptr %12, align 4
  %34 = icmp slt i32 0, %33
  br i1 %34, label %35, label %107

35:                                               ; preds = %5
  store i32 0, ptr %15, align 4
  %36 = load i32, ptr %13, align 4
  store i32 %36, ptr %16, align 4
  store i32 1, ptr %17, align 4
  store i32 0, ptr %18, align 4
  %37 = load ptr, ptr %6, align 8
  %38 = load i32, ptr %37, align 4
  call void @__kmpc_for_static_init_4(ptr @1, i32 %38, i32 34, ptr %18, ptr %15, ptr %16, ptr %17, i32 1, i32 1)
  %39 = load i32, ptr %16, align 4
  %40 = load i32, ptr %13, align 4
  %41 = icmp sgt i32 %39, %40
  br i1 %41, label %42, label %44

42:                                               ; preds = %35
  %43 = load i32, ptr %13, align 4
  br label %46

44:                                               ; preds = %35
  %45 = load i32, ptr %16, align 4
  br label %46

46:                                               ; preds = %44, %42
  %47 = phi i32 [ %43, %42 ], [ %45, %44 ]
  store i32 %47, ptr %16, align 4
  %48 = load i32, ptr %15, align 4
  store i32 %48, ptr %11, align 4
  br label %49

49:                                               ; preds = %100, %46
  %50 = load i32, ptr %11, align 4
  %51 = load i32, ptr %16, align 4
  %52 = icmp sle i32 %50, %51
  br i1 %52, label %53, label %103

53:                                               ; preds = %49
  %54 = load i32, ptr %11, align 4
  %55 = mul nsw i32 %54, 1
  %56 = add nsw i32 0, %55
  store i32 %56, ptr %19, align 4
  store float 0.000000e+00, ptr %20, align 4
  %57 = getelementptr inbounds %class.SparseMatrix, ptr %24, i32 0, i32 4
  %58 = load ptr, ptr %57, align 8
  %59 = load i32, ptr %19, align 4
  %60 = sext i32 %59 to i64
  %61 = getelementptr inbounds ptr, ptr %58, i64 %60
  %62 = load ptr, ptr %61, align 8
  store ptr %62, ptr %21, align 8
  %63 = load ptr, ptr %21, align 8
  %64 = getelementptr inbounds %class.SparseMatrix, ptr %24, i32 0, i32 3
  %65 = load ptr, ptr %64, align 8
  %66 = load i32, ptr %19, align 4
  %67 = sext i32 %66 to i64
  %68 = getelementptr inbounds i32, ptr %65, i64 %67
  %69 = load i32, ptr %68, align 4
  %70 = sext i32 %69 to i64
  %71 = getelementptr inbounds %struct.MatrixEntry, ptr %63, i64 %70
  store ptr %71, ptr %22, align 8
  %72 = load ptr, ptr %21, align 8
  store ptr %72, ptr %23, align 8
  br label %73

73:                                               ; preds = %90, %53
  %74 = load ptr, ptr %23, align 8
  %75 = load ptr, ptr %22, align 8
  %76 = icmp ne ptr %74, %75
  br i1 %76, label %77, label %93

77:                                               ; preds = %73
  %78 = load ptr, ptr %25, align 8
  %79 = load ptr, ptr %23, align 8
  %80 = getelementptr inbounds %struct.MatrixEntry, ptr %79, i32 0, i32 0
  %81 = load i32, ptr %80, align 4
  %82 = sext i32 %81 to i64
  %83 = getelementptr inbounds float, ptr %78, i64 %82
  %84 = load float, ptr %83, align 4
  %85 = load ptr, ptr %23, align 8
  %86 = getelementptr inbounds %struct.MatrixEntry, ptr %85, i32 0, i32 1
  %87 = load float, ptr %86, align 4
  %88 = load float, ptr %20, align 4
  %89 = call float @llvm.fmuladd.f32(float %84, float %87, float %88)
  store float %89, ptr %20, align 4
  br label %90

90:                                               ; preds = %77
  %91 = load ptr, ptr %23, align 8
  %92 = getelementptr inbounds %struct.MatrixEntry, ptr %91, i32 1
  store ptr %92, ptr %23, align 8
  br label %73, !llvm.loop !664

93:                                               ; preds = %73
  %94 = load float, ptr %20, align 4
  %95 = load ptr, ptr %26, align 8
  %96 = load i32, ptr %19, align 4
  %97 = sext i32 %96 to i64
  %98 = getelementptr inbounds float, ptr %95, i64 %97
  store float %94, ptr %98, align 4
  br label %99

99:                                               ; preds = %93
  br label %100

100:                                              ; preds = %99
  %101 = load i32, ptr %11, align 4
  %102 = add nsw i32 %101, 1
  store i32 %102, ptr %11, align 4
  br label %49

103:                                              ; preds = %49
  br label %104

104:                                              ; preds = %103
  %105 = load ptr, ptr %6, align 8
  %106 = load i32, ptr %105, align 4
  call void @__kmpc_for_static_fini(ptr @1, i32 %106)
  br label %107

107:                                              ; preds = %104, %5
  ret void
}