; Function Attrs: norecurse nounwind uwtable
define internal void @_ZNK12SparseMatrixIfE8MultiplyIfEEvPKT_PS2_i.omp_outlined(ptr noalias nocapture noundef readonly %0, ptr noalias nocapture readnone %1, ptr nocapture noundef readonly %2, ptr nocapture noundef nonnull readonly align 8 dereferenceable(8) %3, ptr nocapture noundef nonnull readonly align 8 dereferenceable(8) %4) #23 {
  %6 = alloca i32, align 4
  %7 = alloca i32, align 4
  %8 = alloca i32, align 4
  %9 = alloca i32, align 4
  %10 = getelementptr inbounds i8, ptr %2, i64 8
  %11 = load i32, ptr %10, align 8
  %12 = icmp sgt i32 %11, 0
  br i1 %12, label %13, label %45

13:                                               ; preds = %5
  %14 = add nsw i32 %11, -1
  store i32 0, ptr %6, align 4
  store i32 %14, ptr %7, align 4
  store i32 1, ptr %8, align 4
  store i32 0, ptr %9, align 4
  %15 = load i32, ptr %0, align 4
  call void @__kmpc_for_static_init_4(ptr nonnull @1, i32 %15, i32 34, ptr nonnull %9, ptr nonnull %6, ptr nonnull %7, ptr nonnull %8, i32 1, i32 1)
  %16 = load i32, ptr %7, align 4
  %17 = call i32 @llvm.smin.i32(i32 %16, i32 %14)
  store i32 %17, ptr %7, align 4
  %18 = load i32, ptr %6, align 4
  %.not30 = icmp sgt i32 %18, %17
  br i1 %.not30, label %._crit_edge34, label %.lr.ph33

.lr.ph33:                                         ; preds = %13
  %19 = getelementptr inbounds i8, ptr %2, i64 24
  %20 = getelementptr inbounds i8, ptr %2, i64 16
  %21 = sext i32 %18 to i64
  br label %22

22:                                               ; preds = %.lr.ph33, %._crit_edge
  %indvars.iv = phi i64 [ %21, %.lr.ph33 ], [ %indvars.iv.next, %._crit_edge ]
  %23 = load ptr, ptr %19, align 8
  %24 = getelementptr inbounds ptr, ptr %23, i64 %indvars.iv
  %25 = load ptr, ptr %24, align 8
  %26 = load ptr, ptr %20, align 8
  %27 = getelementptr inbounds i32, ptr %26, i64 %indvars.iv
  %28 = load i32, ptr %27, align 4
  %29 = sext i32 %28 to i64
  %30 = getelementptr inbounds %struct.MatrixEntry, ptr %25, i64 %29
  %.not2627 = icmp eq i32 %28, 0
  br i1 %.not2627, label %._crit_edge, label %.lr.ph

.lr.ph:                                           ; preds = %22
  %31 = load ptr, ptr %3, align 8
  br label %32

32:                                               ; preds = %.lr.ph, %32
  %.029 = phi ptr [ %25, %.lr.ph ], [ %40, %32 ]
  %.02528 = phi float [ 0.000000e+00, %.lr.ph ], [ %39, %32 ]
  %33 = load i32, ptr %.029, align 4
  %34 = sext i32 %33 to i64
  %35 = getelementptr inbounds float, ptr %31, i64 %34
  %36 = load float, ptr %35, align 4
  %37 = getelementptr inbounds i8, ptr %.029, i64 4
  %38 = load float, ptr %37, align 4
  %39 = call float @llvm.fmuladd.f32(float %36, float %38, float %.02528)
  %40 = getelementptr inbounds i8, ptr %.029, i64 8
  %.not26 = icmp eq ptr %40, %30
  br i1 %.not26, label %._crit_edge, label %32, !llvm.loop !793

._crit_edge:                                      ; preds = %32, %22
  %.025.lcssa = phi float [ 0.000000e+00, %22 ], [ %39, %32 ]
  %41 = load ptr, ptr %4, align 8
  %42 = getelementptr inbounds float, ptr %41, i64 %indvars.iv
  store float %.025.lcssa, ptr %42, align 4
  %indvars.iv.next = add nsw i64 %indvars.iv, 1
  %43 = load i32, ptr %7, align 4
  %44 = sext i32 %43 to i64
  %.not.not = icmp slt i64 %indvars.iv, %44
  br i1 %.not.not, label %22, label %._crit_edge34

._crit_edge34:                                    ; preds = %._crit_edge, %13
  call void @__kmpc_for_static_fini(ptr nonnull @1, i32 %15)
  br label %45

45:                                               ; preds = %._crit_edge34, %5
  ret void
}